; Function Attrs: disable_sanitizer_instrumentation nounwind uwtable
define internal ptr @resolve_hs_scan_stream() #0 {
  %1 = tail call fastcc i32 @check_avx2()
  %.not = icmp eq i32 %1, 0
  br i1 %.not, label %2, label %8

2:                                                ; preds = %0
  %3 = tail call fastcc i32 @check_sse42()
  %.not1 = icmp eq i32 %3, 0
  br i1 %.not1, label %6, label %4

4:                                                ; preds = %2
  %5 = tail call fastcc i32 @check_popcnt()
  %.not2 = icmp eq i32 %5, 0
  br i1 %.not2, label %6, label %8

6:                                                ; preds = %4, %2
  %7 = tail call fastcc i32 @check_ssse3()
  %.not3 = icmp eq i32 %7, 0
  %error_hs_scan_stream.core2_hs_scan_stream = select i1 %.not3, ptr @error_hs_scan_stream, ptr @core2_hs_scan_stream
  br label %8

8:                                                ; preds = %6, %4, %0
  %.0 = phi ptr [ @avx2_hs_scan_stream, %0 ], [ @corei7_hs_scan_stream, %4 ], [ %error_hs_scan_stream.core2_hs_scan_stream, %6 ]
  ret ptr %.0
}